Certificate:
    Data:
        Version: 1 (0x0)
        Serial Number: 1 (0x1)
        Signature Algorithm: sha256WithRSAEncryption
        Issuer: OU=MySQLXConnectorPython Root CA, CN=MyConnPy Root CA
        Validity
            Not Before: Jul 17 15:16:10 2024 GMT
            Not After : Jul 17 15:16:10 2025 GMT
        Subject: OU=MySQLXConnectorPython Server Cert, CN=localhost
        Subject Public Key Info:
            Public Key Algorithm: rsaEncryption
                Public-Key: (2048 bit)
                Modulus:
                    00:aa:f0:4a:53:b5:fe:31:d1:d8:7e:ed:24:17:a1:
                    39:00:d0:ad:3a:a4:cf:0a:8c:df:43:08:7b:f3:e1:
                    30:bf:68:26:a2:41:fe:60:78:2a:fd:68:55:76:b5:
                    5c:32:d5:a7:cd:24:c8:ee:b0:ba:5f:29:4d:14:77:
                    bd:38:20:a2:8f:ae:3e:46:09:bf:88:2d:8a:a6:7b:
                    86:fe:fd:f1:7e:40:77:50:90:46:7c:02:e2:86:66:
                    b8:da:3f:da:81:f0:eb:a0:ec:60:f4:ef:0a:9c:d2:
                    d1:60:96:07:72:a8:42:3b:06:de:5d:e1:46:71:af:
                    0c:bd:6d:25:f8:97:36:62:20:63:cb:58:55:f7:fa:
                    eb:2e:eb:ae:62:33:8c:23:83:1d:ce:18:b7:ac:73:
                    e4:e3:55:93:11:62:38:8b:f0:e1:2b:1b:00:89:b3:
                    e7:8a:e4:95:b8:b4:52:9f:e7:4f:88:4a:a4:19:b6:
                    c1:ad:01:f6:cc:50:10:f1:8b:86:c9:2e:4a:12:7a:
                    98:e5:31:2e:37:8a:ba:20:42:0e:17:6e:a5:03:88:
                    fd:6b:e7:6d:1d:ad:49:04:08:1c:05:8a:dc:1c:7a:
                    d3:17:bf:35:cd:c2:b2:c3:2c:80:74:2e:57:bb:94:
                    1e:d3:de:b0:6f:c3:f0:97:61:29:2e:e9:72:91:63:
                    f7:ed
                Exponent: 65537 (0x10001)
    Signature Algorithm: sha256WithRSAEncryption
    Signature Value:
        43:fe:2d:21:8f:74:b7:ac:cf:81:5f:1d:5b:e1:00:31:41:ed:
        7c:ad:0f:6f:f9:c9:09:81:96:73:6b:2c:08:39:e1:7e:9a:bc:
        60:6a:a3:3e:fc:10:1c:07:1a:94:e7:39:46:c2:f1:9e:37:23:
        7d:12:ec:d8:77:a7:21:80:42:0f:2d:9b:00:67:5e:47:44:7e:
        40:fd:db:ef:a1:27:57:f0:3d:ce:fe:8b:bf:78:ec:66:3e:80:
        0d:0b:80:02:fb:d1:1f:a7:5c:3a:79:ae:dd:ca:55:89:c2:f1:
        9e:2a:d1:ff:7d:0a:0b:48:29:8b:24:dd:ba:b9:3e:20:7d:1e:
        63:0e:f7:c5:35:94:17:b2:11:93:c3:6a:62:59:d6:a0:22:fa:
        7c:3d:5d:ba:33:e9:61:30:d2:d1:cf:54:ef:08:55:62:43:28:
        99:a6:06:40:0d:22:e4:1e:37:ad:bb:5e:68:27:fb:69:e3:57:
        d1:aa:62:46:12:2a:27:eb:c6:4e:8a:46:55:e5:22:b9:76:f8:
        26:00:b5:f0:58:7c:66:08:10:f6:86:01:87:18:1c:ab:77:3b:
        0a:db:38:16:1b:5e:b7:fd:84:7e:1a:21:0f:c4:ee:68:2f:b9:
        96:d3:08:07:6a:e8:35:5d:bc:b6:16:59:f7:49:55:76:cd:58:
        5a:dc:74:26
-----BEGIN CERTIFICATE-----
MIIC9zCCAd8CAQEwDQYJKoZIhvcNAQELBQAwQzEmMCQGA1UECwwdTXlTUUxYQ29u
bmVjdG9yUHl0aG9uIFJvb3QgQ0ExGTAXBgNVBAMMEE15Q29ublB5IFJvb3QgQ0Ew
HhcNMjQwNzE3MTUxNjEwWhcNMjUwNzE3MTUxNjEwWjBAMSowKAYDVQQLDCFNeVNR
TFhDb25uZWN0b3JQeXRob24gU2VydmVyIENlcnQxEjAQBgNVBAMMCWxvY2FsaG9z
dDCCASIwDQYJKoZIhvcNAQEBBQADggEPADCCAQoCggEBAKrwSlO1/jHR2H7tJBeh
OQDQrTqkzwqM30MIe/PhML9oJqJB/mB4Kv1oVXa1XDLVp80kyO6wul8pTRR3vTgg
oo+uPkYJv4gtiqZ7hv798X5Ad1CQRnwC4oZmuNo/2oHw66DsYPTvCpzS0WCWB3Ko
QjsG3l3hRnGvDL1tJfiXNmIgY8tYVff66y7rrmIzjCODHc4Yt6xz5ONVkxFiOIvw
4SsbAImz54rklbi0Up/nT4hKpBm2wa0B9sxQEPGLhskuShJ6mOUxLjeKuiBCDhdu
pQOI/WvnbR2tSQQIHAWK3Bx60xe/Nc3CssMsgHQuV7uUHtPesG/D8JdhKS7pcpFj
9+0CAwEAATANBgkqhkiG9w0BAQsFAAOCAQEAQ/4tIY90t6zPgV8dW+EAMUHtfK0P
b/nJCYGWc2ssCDnhfpq8YGqjPvwQHAcalOc5RsLxnjcjfRLs2HenIYBCDy2bAGde
R0R+QP3b76EnV/A9zv6Lv3jsZj6ADQuAAvvRH6dcOnmu3cpVicLxnirR/30KC0gp
iyTdurk+IH0eYw73xTWUF7IRk8NqYlnWoCL6fD1dujPpYTDS0c9U7whVYkMomaYG
QA0i5B43rbteaCf7aeNX0apiRhIqJ+vGTopGVeUiuXb4JgC18Fh8ZggQ9oYBhxgc
q3c7Cts4Fhtet/2EfhohD8TuaC+5ltMIB2roNV28thZZ90lVds1YWtx0Jg==
-----END CERTIFICATE-----
