Certificate:
    Data:
        Version: 1 (0x0)
        Serial Number: 2 (0x2)
        Signature Algorithm: sha256WithRSAEncryption
        Issuer: OU=MySQLXConnectorPython Root CA, CN=MyConnPy Root CA
        Validity
            Not Before: Jul 17 15:16:11 2024 GMT
            Not After : Jul 17 15:16:11 2025 GMT
        Subject: OU=MySQLXConnectorPython Client Cert, CN=localhost
        Subject Public Key Info:
            Public Key Algorithm: rsaEncryption
                Public-Key: (2048 bit)
                Modulus:
                    00:a1:01:70:b4:83:a0:af:10:12:17:b3:76:e6:63:
                    03:65:e3:44:79:7e:a8:78:01:40:3c:90:ca:b8:38:
                    22:9d:0a:ad:b6:f8:bf:d0:73:2a:53:17:02:ac:59:
                    2c:7c:10:34:a7:19:01:a4:74:b4:23:4d:a1:b3:57:
                    3c:c1:5c:f7:e3:7c:73:8b:b7:08:20:1c:13:2c:16:
                    b5:e1:c8:8b:53:43:38:b6:38:17:7b:f3:de:8e:f7:
                    14:be:da:0e:ec:2a:f2:d4:ad:75:fc:48:f4:c2:e5:
                    22:4d:50:c2:db:d4:82:29:8a:f2:5e:e5:4c:fe:c4:
                    26:27:2c:c5:d7:76:7b:c5:ef:ad:f8:70:43:0c:5f:
                    5b:58:5a:12:84:5e:88:24:df:20:34:9e:eb:34:b2:
                    be:12:85:b1:6b:ad:d4:6e:04:2d:39:01:5c:e4:1a:
                    8a:5f:e1:c0:d3:e6:66:a0:0d:12:46:16:98:07:1b:
                    c8:b7:d9:76:c5:d5:1d:67:f0:b5:17:a9:ba:38:44:
                    8d:e3:01:fe:62:fb:8d:b1:ae:83:cc:8d:15:dd:d7:
                    06:d7:26:7d:8e:4c:dd:ab:0f:f6:c7:d2:81:f7:04:
                    1e:1b:9d:5a:0e:9b:77:8e:a8:83:35:0e:2c:62:5f:
                    35:47:73:cb:d4:f3:96:65:de:21:28:ac:6e:35:53:
                    d1:ad
                Exponent: 65537 (0x10001)
    Signature Algorithm: sha256WithRSAEncryption
    Signature Value:
        66:7e:5c:44:99:3c:e7:21:d8:73:2f:22:e6:e2:51:f4:c9:ab:
        ab:e8:78:84:ff:d7:0e:7a:eb:cd:42:31:f1:68:7a:b1:2c:28:
        e3:ac:28:a9:20:d6:31:d9:1b:3f:5a:c4:86:d6:be:ed:cd:f7:
        38:fb:ca:75:29:01:56:62:81:8e:e7:81:f1:d9:67:9d:af:93:
        68:d6:1e:8f:69:e6:5a:36:e8:1e:01:cd:f7:1d:94:ad:12:1a:
        e2:41:94:92:69:00:71:5d:34:1d:7c:1f:b2:75:fa:52:71:db:
        54:84:c8:89:a3:1b:18:27:d4:f2:3b:c7:d9:46:e0:b8:9b:ef:
        65:0b:77:ae:4f:6e:99:c3:64:29:84:a5:cb:c3:a0:88:eb:ef:
        6d:5b:65:14:b6:fd:4f:11:6c:4c:73:8b:47:0b:8b:aa:3c:c2:
        69:df:8e:1c:c1:c3:c9:64:37:66:86:80:98:06:3a:1b:b4:62:
        3e:c7:f9:36:79:21:23:7c:0a:74:d2:5b:d8:5f:66:db:25:69:
        29:5e:a5:fa:b8:dd:0d:5e:5b:10:64:44:b7:53:5a:e5:ca:c0:
        68:78:35:0f:3b:76:00:4e:a7:6c:5a:d3:30:65:66:bc:cb:d3:
        bf:da:f3:bc:9b:ce:22:0a:82:db:a9:44:73:e6:0e:30:87:eb:
        c4:09:7e:96
-----BEGIN CERTIFICATE-----
MIIC9zCCAd8CAQIwDQYJKoZIhvcNAQELBQAwQzEmMCQGA1UECwwdTXlTUUxYQ29u
bmVjdG9yUHl0aG9uIFJvb3QgQ0ExGTAXBgNVBAMMEE15Q29ublB5IFJvb3QgQ0Ew
HhcNMjQwNzE3MTUxNjExWhcNMjUwNzE3MTUxNjExWjBAMSowKAYDVQQLDCFNeVNR
TFhDb25uZWN0b3JQeXRob24gQ2xpZW50IENlcnQxEjAQBgNVBAMMCWxvY2FsaG9z
dDCCASIwDQYJKoZIhvcNAQEBBQADggEPADCCAQoCggEBAKEBcLSDoK8QEhezduZj
A2XjRHl+qHgBQDyQyrg4Ip0Krbb4v9BzKlMXAqxZLHwQNKcZAaR0tCNNobNXPMFc
9+N8c4u3CCAcEywWteHIi1NDOLY4F3vz3o73FL7aDuwq8tStdfxI9MLlIk1QwtvU
gimK8l7lTP7EJicsxdd2e8XvrfhwQwxfW1haEoReiCTfIDSe6zSyvhKFsWut1G4E
LTkBXOQail/hwNPmZqANEkYWmAcbyLfZdsXVHWfwtRepujhEjeMB/mL7jbGug8yN
Fd3XBtcmfY5M3asP9sfSgfcEHhudWg6bd46ogzUOLGJfNUdzy9TzlmXeISisbjVT
0a0CAwEAATANBgkqhkiG9w0BAQsFAAOCAQEAZn5cRJk85yHYcy8i5uJR9Mmrq+h4
hP/XDnrrzUIx8Wh6sSwo46woqSDWMdkbP1rEhta+7c33OPvKdSkBVmKBjueB8dln
na+TaNYej2nmWjboHgHN9x2UrRIa4kGUkmkAcV00HXwfsnX6UnHbVITIiaMbGCfU
8jvH2UbguJvvZQt3rk9umcNkKYSly8OgiOvvbVtlFLb9TxFsTHOLRwuLqjzCad+O
HMHDyWQ3ZoaAmAY6G7RiPsf5NnkhI3wKdNJb2F9m2yVpKV6l+rjdDV5bEGREt1Na
5crAaHg1Dzt2AE6nbFrTMGVmvMvTv9rzvJvOIgqC26lEc+YOMIfrxAl+lg==
-----END CERTIFICATE-----
