Certificate:
    Data:
        Version: 1 (0x0)
        Serial Number: 2 (0x2)
        Signature Algorithm: sha256WithRSAEncryption
        Issuer: OU=MySQLConnectorPython Root CA, CN=MyConnPy Root CA
        Validity
            Not Before: Jul 17 14:55:55 2024 GMT
            Not After : Jul 17 14:55:55 2025 GMT
        Subject: OU=MySQLConnectorPython Client Cert, CN=localhost
        Subject Public Key Info:
            Public Key Algorithm: rsaEncryption
                Public-Key: (2048 bit)
                Modulus:
                    00:90:d5:5b:26:3a:2d:94:30:f4:e5:70:f7:bb:9f:
                    28:3b:29:9c:87:e6:6f:98:d8:ee:7b:0b:a0:57:5c:
                    69:9a:2d:d0:c9:64:e6:f9:51:02:ef:bb:64:fc:17:
                    4b:18:04:30:ff:7e:f3:43:a8:e9:3f:f0:30:4a:f2:
                    4c:08:a6:ff:58:3d:a7:ec:d8:7d:a0:b8:c5:a4:5c:
                    a7:cd:7c:92:b8:97:c8:c4:18:76:f2:7c:0d:4a:a0:
                    32:85:0a:35:fa:ce:d7:09:46:8a:d1:9d:0a:1a:23:
                    f5:7f:77:12:ff:b7:d2:6b:43:d2:b7:2d:16:4d:a0:
                    2b:47:12:62:c0:3a:43:f2:99:b9:e5:02:11:1a:81:
                    b5:eb:6e:8b:ba:a8:79:c1:78:51:01:12:0b:92:51:
                    ba:7a:df:18:80:08:15:96:e4:26:eb:d7:84:b7:2e:
                    61:5e:fc:cc:03:5d:c0:b3:25:50:f3:dd:4a:3c:43:
                    6b:ad:1b:6b:7d:04:13:9d:fc:0f:34:d5:68:45:2f:
                    0f:44:ae:10:96:66:5d:c7:bc:01:4d:f0:3c:b6:8d:
                    96:a1:70:92:6f:1d:aa:e7:ad:25:bd:57:e9:6f:a3:
                    f3:dc:53:82:d8:52:db:18:94:a1:6c:1e:53:f8:0b:
                    de:a6:71:d6:45:f3:a7:5b:f7:49:e0:b2:c9:bb:8b:
                    65:9f
                Exponent: 65537 (0x10001)
    Signature Algorithm: sha256WithRSAEncryption
    Signature Value:
        00:28:99:d3:c9:94:9b:74:e9:29:a8:99:54:7f:7a:d7:0e:dc:
        cb:cd:58:0d:6c:93:37:9c:59:01:ea:fc:0a:1b:3a:56:7c:bc:
        5f:0f:f9:cf:fe:8e:0b:58:68:82:75:b5:12:92:f1:b1:ad:06:
        15:d8:21:ba:ac:92:9c:a4:99:bc:ba:03:10:a7:bc:5d:c7:f9:
        47:da:43:c0:58:45:07:38:63:40:c7:b6:d0:a2:8b:e8:e4:76:
        3d:17:f4:6c:14:a9:57:a0:ab:7c:f5:08:17:5a:14:dd:70:7d:
        2e:7c:00:30:90:d8:c4:c5:cf:9c:33:36:6a:a5:30:b6:d0:6a:
        a1:43:c7:6d:50:74:ea:1a:b0:bc:9b:b1:e5:46:6d:fc:1e:9f:
        e6:92:e9:92:3c:8c:1e:10:7e:d0:66:11:e6:d3:98:cd:fc:d9:
        b1:3f:57:1f:f7:0a:a1:d3:a8:6d:bb:92:55:bf:3d:22:02:61:
        db:27:c9:db:08:6b:59:1b:20:88:5a:da:3a:ac:95:14:e5:fc:
        be:04:32:85:88:92:44:27:e2:38:75:22:07:f2:50:01:65:52:
        d2:ab:a2:a0:a4:58:61:9b:97:61:c5:d4:21:6e:7e:cf:b1:76:
        35:ba:57:70:cb:0b:5f:0b:3d:48:cd:f3:b4:48:93:e0:7a:fa:
        78:4e:b6:fb
-----BEGIN CERTIFICATE-----
MIIC9TCCAd0CAQIwDQYJKoZIhvcNAQELBQAwQjElMCMGA1UECwwcTXlTUUxDb25u
ZWN0b3JQeXRob24gUm9vdCBDQTEZMBcGA1UEAwwQTXlDb25uUHkgUm9vdCBDQTAe
Fw0yNDA3MTcxNDU1NTVaFw0yNTA3MTcxNDU1NTVaMD8xKTAnBgNVBAsMIE15U1FM
Q29ubmVjdG9yUHl0aG9uIENsaWVudCBDZXJ0MRIwEAYDVQQDDAlsb2NhbGhvc3Qw
ggEiMA0GCSqGSIb3DQEBAQUAA4IBDwAwggEKAoIBAQCQ1VsmOi2UMPTlcPe7nyg7
KZyH5m+Y2O57C6BXXGmaLdDJZOb5UQLvu2T8F0sYBDD/fvNDqOk/8DBK8kwIpv9Y
Pafs2H2guMWkXKfNfJK4l8jEGHbyfA1KoDKFCjX6ztcJRorRnQoaI/V/dxL/t9Jr
Q9K3LRZNoCtHEmLAOkPymbnlAhEagbXrbou6qHnBeFEBEguSUbp63xiACBWW5Cbr
14S3LmFe/MwDXcCzJVDz3Uo8Q2utG2t9BBOd/A801WhFLw9ErhCWZl3HvAFN8Dy2
jZahcJJvHarnrSW9V+lvo/PcU4LYUtsYlKFsHlP4C96mcdZF86db90ngssm7i2Wf
AgMBAAEwDQYJKoZIhvcNAQELBQADggEBAAAomdPJlJt06SmomVR/etcO3MvNWA1s
kzecWQHq/AobOlZ8vF8P+c/+jgtYaIJ1tRKS8bGtBhXYIbqskpykmby6AxCnvF3H
+UfaQ8BYRQc4Y0DHttCii+jkdj0X9GwUqVegq3z1CBdaFN1wfS58ADCQ2MTFz5wz
NmqlMLbQaqFDx21QdOoasLybseVGbfwen+aS6ZI8jB4QftBmEebTmM382bE/Vx/3
CqHTqG27klW/PSICYdsnydsIa1kbIIha2jqslRTl/L4EMoWIkkQn4jh1IgfyUAFl
UtKroqCkWGGbl2HF1CFufs+xdjW6V3DLC18LPUjN87RIk+B6+nhOtvs=
-----END CERTIFICATE-----
