Certificate:
    Data:
        Version: 1 (0x0)
        Serial Number: 1 (0x1)
        Signature Algorithm: sha256WithRSAEncryption
        Issuer: OU=MySQLConnectorPython Root CA, CN=MyConnPy Root CA
        Validity
            Not Before: Jul 17 14:55:55 2024 GMT
            Not After : Jul 17 14:55:55 2025 GMT
        Subject: OU=MySQLConnectorPython Server Cert, CN=localhost
        Subject Public Key Info:
            Public Key Algorithm: rsaEncryption
                Public-Key: (2048 bit)
                Modulus:
                    00:c7:7b:56:9d:80:8c:d5:89:0a:57:8a:05:11:f0:
                    1c:64:09:d7:05:ee:61:91:4a:ab:d9:07:39:21:bf:
                    88:aa:4b:51:ce:8d:62:b7:9a:f9:34:1d:4c:d4:f8:
                    21:cc:9a:5f:b0:3e:d4:af:ec:63:9f:73:e9:dc:36:
                    d7:77:ea:da:ee:65:00:39:31:41:1a:10:69:5b:40:
                    37:15:20:d0:8e:82:05:26:ce:7e:71:81:61:9b:ce:
                    66:32:a7:65:0d:da:8f:1b:c8:99:11:80:72:6d:da:
                    ce:00:0c:42:31:a0:13:16:5c:da:cd:75:0e:e2:f0:
                    e6:85:00:4d:23:6b:52:2c:bd:c3:a9:6d:20:f4:54:
                    68:ac:a9:dd:cb:c8:2d:97:bc:69:88:20:b1:24:0f:
                    27:98:fa:66:82:1b:c3:28:71:f3:ed:94:97:76:e1:
                    6d:d9:39:6d:a0:53:82:c6:59:87:57:57:0e:e0:93:
                    31:05:e1:5c:97:f2:0d:a0:b2:c1:5b:ef:ae:3a:27:
                    83:76:17:11:02:cb:d8:03:69:06:67:04:70:b0:10:
                    1c:58:b4:a9:26:92:e0:b0:24:59:20:dd:7f:8a:ff:
                    80:79:d5:01:d3:30:23:e0:5b:7e:48:da:03:56:79:
                    03:df:9a:07:ee:ee:bf:c0:b6:b2:89:6d:c2:2f:4e:
                    37:ad
                Exponent: 65537 (0x10001)
    Signature Algorithm: sha256WithRSAEncryption
    Signature Value:
        62:94:a6:dd:34:06:50:92:45:80:4f:61:e3:0e:49:67:69:07:
        ea:88:8d:24:ec:a1:a4:c8:68:cf:46:7f:80:96:c0:70:f3:c2:
        d7:ad:09:d2:e3:a4:bc:c6:bc:9a:e2:7e:32:de:c5:8d:07:4b:
        74:05:07:a9:11:88:09:c1:90:1c:90:14:f4:01:4f:69:83:ce:
        97:58:15:23:85:f3:97:28:b5:ca:c3:d7:01:13:ff:1d:05:14:
        ec:76:97:59:5d:8a:e6:2f:5a:50:82:c5:94:00:7d:e0:7d:ed:
        53:ce:76:39:3a:f5:20:f4:70:6a:df:36:89:f7:b8:ea:5a:28:
        c0:b4:7e:cf:cc:0f:53:40:20:6e:9b:b2:a3:57:a6:fb:70:a8:
        cb:27:1d:ce:e8:69:c4:cc:45:07:d6:d4:a5:8c:8f:9f:e7:0b:
        d5:32:38:fa:a5:53:df:71:a3:54:70:dd:85:8f:da:75:d6:bc:
        5f:99:22:80:fe:e5:f0:5b:ae:d2:e7:b2:36:ab:8b:8e:7c:d4:
        ce:29:50:3d:5b:48:5f:7b:80:4a:44:85:f7:f5:ed:40:2f:85:
        24:b6:af:0c:72:20:0d:34:27:b1:73:ff:28:c2:9e:bf:44:a8:
        69:8b:de:bd:6e:81:27:68:06:53:ff:b4:e2:d9:cc:31:31:3c:
        ef:e1:4d:39
-----BEGIN CERTIFICATE-----
MIIC9TCCAd0CAQEwDQYJKoZIhvcNAQELBQAwQjElMCMGA1UECwwcTXlTUUxDb25u
ZWN0b3JQeXRob24gUm9vdCBDQTEZMBcGA1UEAwwQTXlDb25uUHkgUm9vdCBDQTAe
Fw0yNDA3MTcxNDU1NTVaFw0yNTA3MTcxNDU1NTVaMD8xKTAnBgNVBAsMIE15U1FM
Q29ubmVjdG9yUHl0aG9uIFNlcnZlciBDZXJ0MRIwEAYDVQQDDAlsb2NhbGhvc3Qw
ggEiMA0GCSqGSIb3DQEBAQUAA4IBDwAwggEKAoIBAQDHe1adgIzViQpXigUR8Bxk
CdcF7mGRSqvZBzkhv4iqS1HOjWK3mvk0HUzU+CHMml+wPtSv7GOfc+ncNtd36tru
ZQA5MUEaEGlbQDcVINCOggUmzn5xgWGbzmYyp2UN2o8byJkRgHJt2s4ADEIxoBMW
XNrNdQ7i8OaFAE0ja1IsvcOpbSD0VGisqd3LyC2XvGmIILEkDyeY+maCG8MocfPt
lJd24W3ZOW2gU4LGWYdXVw7gkzEF4VyX8g2gssFb7646J4N2FxECy9gDaQZnBHCw
EBxYtKkmkuCwJFkg3X+K/4B51QHTMCPgW35I2gNWeQPfmgfu7r/AtrKJbcIvTjet
AgMBAAEwDQYJKoZIhvcNAQELBQADggEBAGKUpt00BlCSRYBPYeMOSWdpB+qIjSTs
oaTIaM9Gf4CWwHDzwtetCdLjpLzGvJrifjLexY0HS3QFB6kRiAnBkByQFPQBT2mD
zpdYFSOF85cotcrD1wET/x0FFOx2l1ldiuYvWlCCxZQAfeB97VPOdjk69SD0cGrf
Non3uOpaKMC0fs/MD1NAIG6bsqNXpvtwqMsnHc7oacTMRQfW1KWMj5/nC9UyOPql
U99xo1Rw3YWP2nXWvF+ZIoD+5fBbrtLnsjari4581M4pUD1bSF97gEpEhff17UAv
hSS2rwxyIA00J7Fz/yjCnr9EqGmL3r1ugSdoBlP/tOLZzDExPO/hTTk=
-----END CERTIFICATE-----
